target datalayout = "e-m:e-p270:32:32-p271:32:32-p272:64:64-i64:64-i128:128-f80:128-n8:16:32:64-S128"
target triple = "x86_64-pc-linux-gnu"

%"class.net::QuicTime" = type { i64 }
%"class.net::QuicFramer" = type { ptr, %"class.std::__cxx11::basic_string", ptr, ptr, i32, %"class.std::unordered_set", %"class.std::unordered_map", i64, %"class.std::unordered_map", i64, i8, i64, i32, i32, %"class.std::vector", %"class.std::unique_ptr", %"class.std::unique_ptr", i8, i8, i8, [3 x %"class.std::unique_ptr.23"], i32, i8, %"class.net::QuicTime", %"class.net::QuicTime::Delta", %"struct.std::array" }
%"class.std::__cxx11::basic_string" = type { %"struct.std::__cxx11::basic_string<char>::_Alloc_hider", i64, %union.anon }
%"struct.std::__cxx11::basic_string<char>::_Alloc_hider" = type { ptr }
%union.anon = type { i64, [8 x i8] }
%"class.std::unordered_set" = type { %"class.std::_Hashtable" }
%"class.std::_Hashtable" = type { ptr, i64, %"struct.std::__detail::_Hash_node_base", i64, %"struct.std::__detail::_Prime_rehash_policy", ptr }
%"struct.std::__detail::_Hash_node_base" = type { ptr }
%"struct.std::__detail::_Prime_rehash_policy" = type { float, i64 }
%"class.std::unordered_map" = type { %"class.std::_Hashtable.5" }
%"class.std::_Hashtable.5" = type { ptr, i64, %"struct.std::__detail::_Hash_node_base", i64, %"struct.std::__detail::_Prime_rehash_policy", ptr }
%"class.std::vector" = type { %"struct.std::_Vector_base" }
%"struct.std::_Vector_base" = type { %"struct.std::_Vector_base<net::QuicVersion, std::allocator<net::QuicVersion>>::_Vector_impl" }
%"struct.std::_Vector_base<net::QuicVersion, std::allocator<net::QuicVersion>>::_Vector_impl" = type { %"struct.std::_Vector_base<net::QuicVersion, std::allocator<net::QuicVersion>>::_Vector_impl_data" }
%"struct.std::_Vector_base<net::QuicVersion, std::allocator<net::QuicVersion>>::_Vector_impl_data" = type { ptr, ptr, ptr }
%"class.std::unique_ptr" = type { %"struct.std::__uniq_ptr_data" }
%"struct.std::__uniq_ptr_data" = type { %"class.std::__uniq_ptr_impl" }
%"class.std::__uniq_ptr_impl" = type { %"class.std::tuple" }
%"class.std::tuple" = type { %"struct.std::_Tuple_impl" }
%"struct.std::_Tuple_impl" = type { %"struct.std::_Head_base.22" }
%"struct.std::_Head_base.22" = type { ptr }
%"class.std::unique_ptr.23" = type { %"struct.std::__uniq_ptr_data.24" }
%"struct.std::__uniq_ptr_data.24" = type { %"class.std::__uniq_ptr_impl.25" }
%"class.std::__uniq_ptr_impl.25" = type { %"class.std::tuple.26" }
%"class.std::tuple.26" = type { %"struct.std::_Tuple_impl.27" }
%"struct.std::_Tuple_impl.27" = type { %"struct.std::_Head_base.30" }
%"struct.std::_Head_base.30" = type { ptr }
%"class.net::QuicTime::Delta" = type { %"class.base::TimeDelta", i64 }
%"class.base::TimeDelta" = type { i64 }
%"struct.std::array" = type { [32 x i8] }
%"struct.net::QuicRstStreamFrame" = type { i32, i32, i64 }

@.str.49 = private unnamed_addr constant [26 x i8] c"Unable to read stream_id.\00", align 1
@.str.71 = private unnamed_addr constant [44 x i8] c"Unable to read rst stream sent byte offset.\00", align 1
@.str.72 = private unnamed_addr constant [38 x i8] c"Unable to read rst stream error code.\00", align 1

; Function Attrs: mustprogress nounwind uwtable
define linkonce_odr noundef i64 @_ZNSt11char_traitsIcE6lengthEPKc(ptr noundef %0) #1 comdat align 2 {
  %2 = alloca ptr, align 8
  store ptr %0, ptr %2, align 8, !tbaa !98
  %3 = load ptr, ptr %2, align 8, !tbaa !98
  %4 = call i64 @strlen(ptr noundef %3) #17
  ret i64 %4
}

; Function Attrs: mustprogress nounwind uwtable
define available_externally noundef i64 @_ZNKSt7__cxx1112basic_stringIcSt11char_traitsIcESaIcEE4sizeEv(ptr noundef nonnull align 8 dereferenceable(32) %0) #1 align 2 {
  %2 = alloca ptr, align 8
  store ptr %0, ptr %2, align 8, !tbaa !66
  %3 = load ptr, ptr %2, align 8
  %4 = getelementptr inbounds nuw %"class.std::__cxx11::basic_string", ptr %3, i32 0, i32 1
  %5 = load i64, ptr %4, align 8, !tbaa !368
  ret i64 %5
}

; Function Attrs: mustprogress uwtable
define available_externally noundef nonnull align 8 dereferenceable(32) ptr @_ZNSt7__cxx1112basic_stringIcSt11char_traitsIcESaIcEE6assignEPKc(ptr noundef nonnull align 8 dereferenceable(32) %0, ptr noundef %1) #0 align 2 {
  %3 = alloca ptr, align 8
  %4 = alloca ptr, align 8
  store ptr %0, ptr %3, align 8, !tbaa !66
  store ptr %1, ptr %4, align 8, !tbaa !98
  %5 = load ptr, ptr %3, align 8
  %6 = call noundef i64 @_ZNKSt7__cxx1112basic_stringIcSt11char_traitsIcESaIcEE4sizeEv(ptr noundef nonnull align 8 dereferenceable(32) %5) #17
  %7 = load ptr, ptr %4, align 8, !tbaa !98
  %8 = load ptr, ptr %4, align 8, !tbaa !98
  %9 = call noundef i64 @_ZNSt11char_traitsIcE6lengthEPKc(ptr noundef %8)
  %10 = call noundef nonnull align 8 dereferenceable(32) ptr @_ZNSt7__cxx1112basic_stringIcSt11char_traitsIcESaIcEE10_M_replaceEmmPKcm(ptr noundef nonnull align 8 dereferenceable(32) %5, i64 noundef 0, i64 noundef %6, ptr noundef %7, i64 noundef %9)
  ret ptr %10
}

; Function Attrs: mustprogress uwtable
define available_externally noundef nonnull align 8 dereferenceable(32) ptr @_ZNSt7__cxx1112basic_stringIcSt11char_traitsIcESaIcEEaSEPKc(ptr noundef nonnull align 8 dereferenceable(32) %0, ptr noundef %1) #0 align 2 {
  %3 = alloca ptr, align 8
  %4 = alloca ptr, align 8
  store ptr %0, ptr %3, align 8, !tbaa !66
  store ptr %1, ptr %4, align 8, !tbaa !98
  %5 = load ptr, ptr %3, align 8
  %6 = load ptr, ptr %4, align 8, !tbaa !98
  %7 = call noundef nonnull align 8 dereferenceable(32) ptr @_ZNSt7__cxx1112basic_stringIcSt11char_traitsIcESaIcEE6assignEPKc(ptr noundef nonnull align 8 dereferenceable(32) %5, ptr noundef %6)
  ret ptr %7
}

; Function Attrs: mustprogress uwtable
define linkonce_odr void @_ZN3net10QuicFramer18set_detailed_errorEPKc(ptr noundef nonnull align 8 dereferenceable(408) %0, ptr noundef %1) #0 comdat align 2 {
  %3 = alloca ptr, align 8
  %4 = alloca ptr, align 8
  store ptr %0, ptr %3, align 8, !tbaa !3
  store ptr %1, ptr %4, align 8, !tbaa !98
  %5 = load ptr, ptr %3, align 8
  %6 = load ptr, ptr %4, align 8, !tbaa !98
  %7 = getelementptr inbounds nuw %"class.net::QuicFramer", ptr %5, i32 0, i32 1
  %8 = call noundef nonnull align 8 dereferenceable(32) ptr @_ZNSt7__cxx1112basic_stringIcSt11char_traitsIcESaIcEEaSEPKc(ptr noundef nonnull align 8 dereferenceable(32) %7, ptr noundef %6)
  ret void
}

; Function Attrs: mustprogress uwtable
define noundef zeroext i1 @_ZN3net10QuicFramer21ProcessRstStreamFrameEPNS_14QuicDataReaderEPNS_18QuicRstStreamFrameE(ptr noundef nonnull align 8 dereferenceable(408) %0, ptr noundef %1, ptr noundef %2) #0 align 2 {
  %4 = alloca i1, align 1
  %5 = alloca ptr, align 8
  %6 = alloca ptr, align 8
  %7 = alloca ptr, align 8
  %8 = alloca i32, align 4
  %9 = alloca i32, align 4
  store ptr %0, ptr %5, align 8, !tbaa !3
  store ptr %1, ptr %6, align 8, !tbaa !297
  store ptr %2, ptr %7, align 8, !tbaa !212
  %10 = load ptr, ptr %5, align 8
  %11 = load ptr, ptr %6, align 8, !tbaa !297
  %12 = load ptr, ptr %7, align 8, !tbaa !212
  %13 = getelementptr inbounds nuw %"struct.net::QuicRstStreamFrame", ptr %12, i32 0, i32 0
  %14 = call noundef zeroext i1 @_ZN3net14QuicDataReader10ReadUInt32EPj(ptr noundef nonnull align 8 dereferenceable(24) %11, ptr noundef %13)
  br i1 %14, label %16, label %15

15:                                               ; preds = %3
  call void @_ZN3net10QuicFramer18set_detailed_errorEPKc(ptr noundef nonnull align 8 dereferenceable(408) %10, ptr noundef @.str.49)
  store i1 false, ptr %4, align 1
  br label %35

16:                                               ; preds = %3
  %17 = load ptr, ptr %6, align 8, !tbaa !297
  %18 = load ptr, ptr %7, align 8, !tbaa !212
  %19 = getelementptr inbounds nuw %"struct.net::QuicRstStreamFrame", ptr %18, i32 0, i32 2
  %20 = call noundef zeroext i1 @_ZN3net14QuicDataReader10ReadUInt64EPm(ptr noundef nonnull align 8 dereferenceable(24) %17, ptr noundef %19)
  br i1 %20, label %22, label %21

21:                                               ; preds = %16
  call void @_ZN3net10QuicFramer18set_detailed_errorEPKc(ptr noundef nonnull align 8 dereferenceable(408) %10, ptr noundef @.str.71)
  store i1 false, ptr %4, align 1
  br label %35

22:                                               ; preds = %16
  call void @llvm.lifetime.start.p0(i64 4, ptr %8) #17
  %23 = load ptr, ptr %6, align 8, !tbaa !297
  %24 = call noundef zeroext i1 @_ZN3net14QuicDataReader10ReadUInt32EPj(ptr noundef nonnull align 8 dereferenceable(24) %23, ptr noundef %8)
  br i1 %24, label %26, label %25

25:                                               ; preds = %22
  call void @_ZN3net10QuicFramer18set_detailed_errorEPKc(ptr noundef nonnull align 8 dereferenceable(408) %10, ptr noundef @.str.72)
  store i1 false, ptr %4, align 1
  store i32 1, ptr %9, align 4
  br label %34

26:                                               ; preds = %22
  %27 = load i32, ptr %8, align 4, !tbaa !85
  %28 = icmp uge i32 %27, 14
  br i1 %28, label %29, label %30

29:                                               ; preds = %26
  store i32 14, ptr %8, align 4, !tbaa !85
  br label %30

30:                                               ; preds = %29, %26
  %31 = load i32, ptr %8, align 4, !tbaa !85
  %32 = load ptr, ptr %7, align 8, !tbaa !212
  %33 = getelementptr inbounds nuw %"struct.net::QuicRstStreamFrame", ptr %32, i32 0, i32 1
  store i32 %31, ptr %33, align 4, !tbaa !218
  store i1 true, ptr %4, align 1
  store i32 1, ptr %9, align 4
  br label %34

34:                                               ; preds = %30, %25
  call void @llvm.lifetime.end.p0(i64 4, ptr %8) #17
  br label %35

35:                                               ; preds = %34, %21, %15
  %36 = load i1, ptr %4, align 1
  ret i1 %36
}