; Function Attrs: mustprogress uwtable
define noundef zeroext i1 @_ZN3net10QuicFramer21ProcessRstStreamFrameEPNS_14QuicDataReaderEPNS_18QuicRstStreamFrameE(ptr noundef nonnull align 8 dereferenceable(408) %0, ptr noundef nonnull %1, ptr noundef %2) local_unnamed_addr #0 align 2 {
  %4 = alloca i32, align 4
  %5 = tail call noundef zeroext i1 @_ZN3net14QuicDataReader10ReadUInt32EPj(ptr noundef nonnull align 8 dereferenceable(24) %1, ptr noundef %2)
  br i1 %5, label %11, label %6

6:                                                ; preds = %3
  %7 = getelementptr inbounds nuw i8, ptr %0, i64 8
  %8 = getelementptr inbounds nuw i8, ptr %0, i64 16
  %9 = load i64, ptr %8, align 8, !tbaa !11
  %10 = tail call noundef nonnull align 8 dereferenceable(32) ptr @_ZNSt7__cxx1112basic_stringIcSt11char_traitsIcESaIcEE10_M_replaceEmmPKcm(ptr noundef nonnull align 8 dereferenceable(32) %7, i64 noundef 0, i64 noundef %9, ptr noundef nonnull @.str.49, i64 noundef 25)
  br label %30

11:                                               ; preds = %3
  %12 = getelementptr inbounds nuw i8, ptr %2, i64 8
  %13 = tail call noundef zeroext i1 @_ZN3net14QuicDataReader10ReadUInt64EPm(ptr noundef nonnull align 8 dereferenceable(24) %1, ptr noundef nonnull %12)
  br i1 %13, label %19, label %14

14:                                               ; preds = %11
  %15 = getelementptr inbounds nuw i8, ptr %0, i64 8
  %16 = getelementptr inbounds nuw i8, ptr %0, i64 16
  %17 = load i64, ptr %16, align 8, !tbaa !11
  %18 = tail call noundef nonnull align 8 dereferenceable(32) ptr @_ZNSt7__cxx1112basic_stringIcSt11char_traitsIcESaIcEE10_M_replaceEmmPKcm(ptr noundef nonnull align 8 dereferenceable(32) %15, i64 noundef 0, i64 noundef %17, ptr noundef nonnull @.str.71, i64 noundef 43)
  br label %30

19:                                               ; preds = %11
  call void @llvm.lifetime.start.p0(i64 4, ptr nonnull %4) #26
  %20 = call noundef zeroext i1 @_ZN3net14QuicDataReader10ReadUInt32EPj(ptr noundef nonnull align 8 dereferenceable(24) %1, ptr noundef nonnull %4)
  br i1 %20, label %26, label %21

21:                                               ; preds = %19
  %22 = getelementptr inbounds nuw i8, ptr %0, i64 8
  %23 = getelementptr inbounds nuw i8, ptr %0, i64 16
  %24 = load i64, ptr %23, align 8, !tbaa !11
  %25 = call noundef nonnull align 8 dereferenceable(32) ptr @_ZNSt7__cxx1112basic_stringIcSt11char_traitsIcESaIcEE10_M_replaceEmmPKcm(ptr noundef nonnull align 8 dereferenceable(32) %22, i64 noundef 0, i64 noundef %24, ptr noundef nonnull @.str.72, i64 noundef 37)
  br label %29

26:                                               ; preds = %19
  %27 = load i32, ptr %4, align 4, !tbaa !248
  %spec.select = call i32 @llvm.umin.i32(i32 %27, i32 14)
  %28 = getelementptr inbounds nuw i8, ptr %2, i64 4
  store i32 %spec.select, ptr %28, align 4, !tbaa !153
  br label %29

29:                                               ; preds = %26, %21
  call void @llvm.lifetime.end.p0(i64 4, ptr nonnull %4) #26
  br label %30

30:                                               ; preds = %29, %14, %6
  %.0 = phi i1 [ %20, %29 ], [ false, %14 ], [ false, %6 ]
  ret i1 %.0
}